; ModuleID = '44/36.c'
source_filename = "44/36.c"
target datalayout = "e-m:e-p270:32:32-p271:32:32-p272:64:64-i64:64-f80:128-n8:16:32:64-S128"
target triple = "x86_64-pc-linux-gnu"

@.str = private unnamed_addr constant [3 x i8] c"%d\00", align 1
@.str.1 = private unnamed_addr constant [4 x i8] c"%d\0A\00", align 1

; Function Attrs: noinline nounwind uwtable
define dso_local i32 @reverse(i32 %0) #0 {
  %2 = alloca i32, align 4
  %3 = alloca i32, align 4
  %4 = alloca i32, align 4
  %5 = alloca i32, align 4
  %6 = alloca i32, align 4
  store i32 %0, i32* %2, align 4
  store i32 0, i32* %4, align 4
  store i32 0, i32* %6, align 4
  store i32 0, i32* %5, align 4
  br label %7

7:                                                ; preds = %20, %1
  %8 = load i32, i32* %2, align 4
  %9 = srem i32 %8, 10
  store i32 %9, i32* %3, align 4
  %10 = load i32, i32* %4, align 4
  %11 = mul nsw i32 %10, 10
  %12 = load i32, i32* %3, align 4
  %13 = add nsw i32 %11, %12
  store i32 %13, i32* %4, align 4
  %14 = load i32, i32* %2, align 4
  %15 = sdiv i32 %14, 10
  store i32 %15, i32* %2, align 4
  %16 = load i32, i32* %2, align 4
  %17 = icmp eq i32 %16, 0
  br i1 %17, label %18, label %19

18:                                               ; preds = %7
  br label %23

19:                                               ; preds = %7
  br label %20

20:                                               ; preds = %19
  %21 = load i32, i32* %5, align 4
  %22 = add nsw i32 %21, 1
  store i32 %22, i32* %5, align 4
  br label %7

23:                                               ; preds = %18
  %24 = load i32, i32* %4, align 4
  ret i32 %24
}

; Function Attrs: noinline nounwind uwtable
define dso_local i32 @main() #0 {
  %1 = alloca i32, align 4
  %2 = alloca i32, align 4
  %3 = alloca i32, align 4
  %4 = alloca [6 x i32], align 16
  %5 = alloca i32, align 4
  store i32 0, i32* %1, align 4
  store i32 0, i32* %5, align 4
  br label %6

6:                                                ; preds = %14, %0
  %7 = load i32, i32* %5, align 4
  %8 = icmp slt i32 %7, 6
  br i1 %8, label %9, label %17

9:                                                ; preds = %6
  %10 = load i32, i32* %5, align 4
  %11 = sext i32 %10 to i64
  %12 = getelementptr inbounds [6 x i32], [6 x i32]* %4, i64 0, i64 %11
  %13 = call i32 (i8*, ...) @__isoc99_scanf(i8* getelementptr inbounds ([3 x i8], [3 x i8]* @.str, i64 0, i64 0), i32* %12)
  br label %14

14:                                               ; preds = %9
  %15 = load i32, i32* %5, align 4
  %16 = add nsw i32 %15, 1
  store i32 %16, i32* %5, align 4
  br label %6

17:                                               ; preds = %6
  store i32 0, i32* %5, align 4
  br label %18

18:                                               ; preds = %53, %17
  %19 = load i32, i32* %5, align 4
  %20 = icmp slt i32 %19, 6
  br i1 %20, label %21, label %56

21:                                               ; preds = %18
  %22 = load i32, i32* %5, align 4
  %23 = sext i32 %22 to i64
  %24 = getelementptr inbounds [6 x i32], [6 x i32]* %4, i64 0, i64 %23
  %25 = load i32, i32* %24, align 4
  %26 = icmp slt i32 %25, 0
  br i1 %26, label %27, label %44

27:                                               ; preds = %21
  %28 = load i32, i32* %5, align 4
  %29 = sext i32 %28 to i64
  %30 = getelementptr inbounds [6 x i32], [6 x i32]* %4, i64 0, i64 %29
  %31 = load i32, i32* %30, align 4
  %32 = sub nsw i32 0, %31
  %33 = load i32, i32* %5, align 4
  %34 = sext i32 %33 to i64
  %35 = getelementptr inbounds [6 x i32], [6 x i32]* %4, i64 0, i64 %34
  store i32 %32, i32* %35, align 4
  %36 = load i32, i32* %5, align 4
  %37 = sext i32 %36 to i64
  %38 = getelementptr inbounds [6 x i32], [6 x i32]* %4, i64 0, i64 %37
  %39 = load i32, i32* %38, align 4
  %40 = call i32 @reverse(i32 %39)
  store i32 %40, i32* %3, align 4
  %41 = load i32, i32* %3, align 4
  %42 = sub nsw i32 0, %41
  %43 = call i32 (i8*, ...) @printf(i8* getelementptr inbounds ([4 x i8], [4 x i8]* @.str.1, i64 0, i64 0), i32 %42)
  br label %52

44:                                               ; preds = %21
  %45 = load i32, i32* %5, align 4
  %46 = sext i32 %45 to i64
  %47 = getelementptr inbounds [6 x i32], [6 x i32]* %4, i64 0, i64 %46
  %48 = load i32, i32* %47, align 4
  %49 = call i32 @reverse(i32 %48)
  store i32 %49, i32* %3, align 4
  %50 = load i32, i32* %3, align 4
  %51 = call i32 (i8*, ...) @printf(i8* getelementptr inbounds ([4 x i8], [4 x i8]* @.str.1, i64 0, i64 0), i32 %50)
  br label %52

52:                                               ; preds = %44, %27
  br label %53

53:                                               ; preds = %52
  %54 = load i32, i32* %5, align 4
  %55 = add nsw i32 %54, 1
  store i32 %55, i32* %5, align 4
  br label %18

56:                                               ; preds = %18
  ret i32 0
}

declare dso_local i32 @__isoc99_scanf(i8*, ...) #1

declare dso_local i32 @printf(i8*, ...) #1


!llvm.module.flags = !{!0}
!llvm.ident = !{!1}

!0 = !{i32 1, !"wchar_size", i32 4}
!1 = !{!"clang version 10.0.0-4ubuntu1 "}
